; Function Attrs: mustprogress nofree norecurse nosync nounwind willreturn memory(argmem: read) uwtable
define noundef range(i64 -384307168202282325, 384307168202282326) i64 @_ZNK8QuantLib4Swap12numberOfLegsEv(ptr nocapture noundef nonnull readonly align 8 dereferenceable(256) %this) local_unnamed_addr #13 align 2 {
entry:
  %legs_ = getelementptr inbounds nuw i8, ptr %this, i64 104
  %_M_finish.i = getelementptr inbounds nuw i8, ptr %this, i64 112
  %0 = load ptr, ptr %_M_finish.i, align 8, !tbaa !37
  %1 = load ptr, ptr %legs_, align 8, !tbaa !35
  %sub.ptr.lhs.cast.i = ptrtoint ptr %0 to i64
  %sub.ptr.rhs.cast.i = ptrtoint ptr %1 to i64
  %sub.ptr.sub.i = sub i64 %sub.ptr.lhs.cast.i, %sub.ptr.rhs.cast.i
  %sub.ptr.div.i = sdiv exact i64 %sub.ptr.sub.i, 24
  ret i64 %sub.ptr.div.i
}